	.syntax unified
	.cpu cortex-m4
	.eabi_attribute 27, 3
	.eabi_attribute 28, 1
	.fpu fpv4-sp-d16
	.eabi_attribute 20, 1
	.eabi_attribute 21, 1
	.eabi_attribute 23, 3
	.eabi_attribute 24, 1
	.eabi_attribute 25, 1
	.eabi_attribute 26, 1
	.eabi_attribute 30, 2
	.eabi_attribute 34, 1
	.eabi_attribute 18, 4
	.thumb
	.file	"main.c"
	.text
.Ltext0:
	.cfi_sections	.debug_frame
	.align	2
	.global	playNote
	.thumb
	.thumb_func
	.type	playNote, %function
playNote:
.LFB112:
	.file 1 "main.c"
	.loc 1 138 0
	.cfi_startproc
	@ args = 0, pretend = 0, frame = 0
	@ frame_needed = 0, uses_anonymous_args = 0
.LVL0:
	push	{r3, lr}
	.cfi_def_cfa_offset 8
	.cfi_offset 3, -8
	.cfi_offset 14, -4
	.loc 1 139 0
	subs	r0, r0, #1
.LVL1:
	fmsr	s15, r0	@ int
	.loc 1 138 0
	fstmfdd	sp!, {d8}
	.cfi_def_cfa_offset 16
	.cfi_offset 80, -16
	.cfi_offset 81, -12
	.loc 1 138 0
	fcpys	s16, s0
	fcpys	s17, s1
	.loc 1 139 0
	fconsts	s0, #0
.LVL2:
	fsitos	s1, s15
.LVL3:
	bl	powf
.LVL4:
	.loc 1 140 0
	flds	s15, .L3
	.loc 1 139 0
	fmuls	s0, s0, s16
.LVL5:
	.loc 1 140 0
	fmuls	s0, s0, s15
.LVL6:
	.loc 1 141 0
	fmuls	s0, s0, s17
.LVL7:
	bl	sinf
.LVL8:
	.loc 1 142 0
	fldmfdd	sp!, {d8}
	.cfi_restore 80
	.cfi_restore 81
	.cfi_def_cfa_offset 8
.LVL9:
	.loc 1 141 0
	ldr	r3, .L3+4
	fsts	s0, [r3]
	.loc 1 142 0
	pop	{r3, pc}
.L4:
	.align	2
.L3:
	.word	1086918608
	.word	y
	.cfi_endproc
.LFE112:
	.size	playNote, .-playNote
	.align	2
	.global	getData4DacUSART2
	.thumb
	.thumb_func
	.type	getData4DacUSART2, %function
getData4DacUSART2:
.LFB111:
	.loc 1 68 0
	.cfi_startproc
	@ args = 0, pretend = 0, frame = 0
	@ frame_needed = 0, uses_anonymous_args = 0
.LVL10:
	push	{r4, r5, r6, r7, r8, lr}
	.cfi_def_cfa_offset 24
	.cfi_offset 4, -24
	.cfi_offset 5, -20
	.cfi_offset 6, -16
	.cfi_offset 7, -12
	.cfi_offset 8, -8
	.cfi_offset 14, -4
	fstmfdd	sp!, {d8}
	.cfi_def_cfa_offset 32
	.cfi_offset 80, -32
	.cfi_offset 81, -28
	.loc 1 69 0
	flds	s16, .L30
	ldr	r7, .L30+4
	.loc 1 119 0
	fcpys	s17, s16
	.loc 1 68 0
	mov	r8, r0
	mov	r6, r1
	mov	r4, r2
	movs	r5, #0
.LVL11:
.L25:
	.loc 1 74 0
	cmp	r6, #13
	bhi	.L6
	tbb	[pc, r6]
.L8:
	.byte	(.L6-.L8)/2
	.byte	(.L9-.L8)/2
	.byte	(.L10-.L8)/2
	.byte	(.L11-.L8)/2
	.byte	(.L12-.L8)/2
	.byte	(.L13-.L8)/2
	.byte	(.L14-.L8)/2
	.byte	(.L15-.L8)/2
	.byte	(.L16-.L8)/2
	.byte	(.L17-.L8)/2
	.byte	(.L18-.L8)/2
	.byte	(.L19-.L8)/2
	.byte	(.L20-.L8)/2
	.byte	(.L21-.L8)/2
	.p2align 1
.L6:
	.loc 1 119 0
	fsts	s17, [r7]
.L22:
	.loc 1 124 0
	flds	s15, [r7]
	flds	s13, .L30+8
	.loc 1 126 0
	flds	s14, .L30+12
	.loc 1 124 0
	fmuls	s15, s15, s13
	uxtb	r1, r5
	ftouizs	s15, s15
	.loc 1 128 0
	cmp	r4, #7
	.loc 1 124 0
	fmrs	r3, s15	@ int
	.loc 1 126 0
	fadds	s16, s16, s14
.LVL12:
	.loc 1 124 0
	strh	r3, [r8, r1, lsl #1]	@ movhi
	.loc 1 128 0
	bhi	.L26
	.loc 1 132 0
	cmp	r4, #1
	it	cc
	movcc	r4, #1
.LVL13:
.L24:
	adds	r5, r5, #1
.LVL14:
	.loc 1 134 0
	b	.L25
.LVL15:
.L20:
	.loc 1 113 0
	flds	s0, .L30+16
	fcpys	s1, s16
	mov	r0, r4
	bl	playNote
.LVL16:
	.loc 1 114 0
	b	.L22
.L19:
	.loc 1 110 0
	flds	s0, .L30+20
	fcpys	s1, s16
	mov	r0, r4
	bl	playNote
.LVL17:
	.loc 1 111 0
	b	.L22
.L18:
	.loc 1 107 0
	flds	s0, .L30+24
	fcpys	s1, s16
	mov	r0, r4
	bl	playNote
.LVL18:
	.loc 1 108 0
	b	.L22
.L17:
	.loc 1 104 0
	flds	s0, .L30+28
	fcpys	s1, s16
	mov	r0, r4
	bl	playNote
.LVL19:
	.loc 1 105 0
	b	.L22
.L16:
	.loc 1 101 0
	flds	s0, .L30+32
	fcpys	s1, s16
	mov	r0, r4
	bl	playNote
.LVL20:
	.loc 1 102 0
	b	.L22
.L15:
	.loc 1 98 0
	flds	s0, .L30+36
	fcpys	s1, s16
	mov	r0, r4
	bl	playNote
.LVL21:
	.loc 1 99 0
	b	.L22
.L14:
	.loc 1 95 0
	flds	s0, .L30+40
	fcpys	s1, s16
	mov	r0, r4
	bl	playNote
.LVL22:
	.loc 1 96 0
	b	.L22
.L13:
	.loc 1 92 0
	flds	s0, .L30+44
	fcpys	s1, s16
	mov	r0, r4
	bl	playNote
.LVL23:
	.loc 1 93 0
	b	.L22
.L12:
	.loc 1 89 0
	flds	s0, .L30+48
	fcpys	s1, s16
	mov	r0, r4
	bl	playNote
.LVL24:
	.loc 1 90 0
	b	.L22
.L11:
	.loc 1 86 0
	flds	s0, .L30+52
	fcpys	s1, s16
	mov	r0, r4
	bl	playNote
.LVL25:
	.loc 1 87 0
	b	.L22
.L10:
	.loc 1 83 0
	flds	s0, .L30+56
	fcpys	s1, s16
	mov	r0, r4
	bl	playNote
.LVL26:
	.loc 1 84 0
	b	.L22
.L9:
	.loc 1 80 0
	flds	s0, .L30+60
	fcpys	s1, s16
	mov	r0, r4
	bl	playNote
.LVL27:
	.loc 1 81 0
	b	.L22
.L21:
	.loc 1 116 0
	flds	s0, .L30+64
	fcpys	s1, s16
	mov	r0, r4
	bl	playNote
.LVL28:
	.loc 1 117 0
	b	.L22
.L26:
	.loc 1 129 0
	movs	r4, #8
.LVL29:
	b	.L24
.L31:
	.align	2
.L30:
	.word	0
	.word	y
	.word	1165991936
	.word	944879383
	.word	1106698568
	.word	1105796792
	.word	1104936960
	.word	1104124314
	.word	1103358853
	.word	1102640579
	.word	1101959004
	.word	1101319373
	.word	1100711199
	.word	1100139725
	.word	1099599708
	.word	1099091149
	.word	1107479757
	.cfi_endproc
.LFE111:
	.size	getData4DacUSART2, .-getData4DacUSART2
	.section	.text.startup,"ax",%progbits
	.align	2
	.global	main
	.thumb
	.thumb_func
	.type	main, %function
main:
.LFB110:
	.loc 1 35 0
	.cfi_startproc
	@ Volatile: function does not return.
	@ args = 0, pretend = 0, frame = 0
	@ frame_needed = 0, uses_anonymous_args = 0
	.loc 1 36 0
	movs	r0, #45
	.loc 1 35 0
	push	{r3, lr}
	.cfi_def_cfa_offset 8
	.cfi_offset 3, -8
	.cfi_offset 14, -4
	.loc 1 36 0
	bl	initUSART2
.LVL30:
	.loc 1 37 0
	bl	enIrqUSART2
.LVL31:
	.loc 1 38 0
	bl	initSYSTIM
.LVL32:
	.loc 1 40 0
	ldr	r0, .L34
	movs	r1, #0
	movs	r2, #1
	bl	getData4DacUSART2
.LVL33:
.L35:
	.align	2
.L34:
	.word	dac_buff
	.cfi_endproc
.LFE110:
	.size	main, .-main
	.comm	dac_buff,1000,4
	.global	utmp32
	.comm	y,4,4
	.comm	dev_addr,1,1
	.bss
	.align	2
	.type	utmp32, %object
	.size	utmp32, 4
utmp32:
	.space	4
	.text
.Letext0:
	.file 2 "/home/ozman/msut/STM32F407/gcc-arm-none-eabi/arm-none-eabi/include/machine/_default_types.h"
	.file 3 "/home/ozman/msut/STM32F407/gcc-arm-none-eabi/arm-none-eabi/include/stdint.h"
	.file 4 "../../../../STM32F407/Libraries/CMSIS/ST/STM32F4xx/Include/stm32f4xx.h"
	.file 5 "../../../../STM32F407/Libraries/CMSIS/Include/core_cm4.h"
	.file 6 "usart.h"
	.file 7 "i2c.h"
	.file 8 "/home/ozman/msut/STM32F407/gcc-arm-none-eabi/arm-none-eabi/include/math.h"
	.file 9 "delay.h"