	.syntax unified
	.cpu cortex-m4
	.eabi_attribute 27, 3
	.eabi_attribute 28, 1
	.fpu fpv4-sp-d16
	.eabi_attribute 20, 1
	.eabi_attribute 21, 1
	.eabi_attribute 23, 3
	.eabi_attribute 24, 1
	.eabi_attribute 25, 1
	.eabi_attribute 26, 1
	.eabi_attribute 30, 2
	.eabi_attribute 34, 1
	.eabi_attribute 18, 4
	.thumb
	.file	"usart.c"
	.text
.Ltext0:
	.cfi_sections	.debug_frame
	.align	2
	.global	initUSART2
	.thumb
	.thumb_func
	.type	initUSART2, %function
initUSART2:
.LFB110:
	.file 1 "usart.c"
	.loc 1 17 0
	.cfi_startproc
	@ args = 0, pretend = 0, frame = 0
	@ frame_needed = 0, uses_anonymous_args = 0
	@ link register save eliminated.
.LVL0:
	.loc 1 21 0
	ldr	r2, .L3
	.loc 1 23 0
	ldr	r3, .L3+4
	.loc 1 21 0
	ldr	r1, [r2, #48]
	orr	r1, r1, #1
	.loc 1 17 0
	push	{r4}
	.cfi_def_cfa_offset 4
	.cfi_offset 4, -4
	.loc 1 21 0
	str	r1, [r2, #48]
	.loc 1 22 0
	ldr	r1, [r2, #64]
	.loc 1 30 0
	ldr	r4, .L3+8
	.loc 1 22 0
	orr	r1, r1, #131072
	str	r1, [r2, #64]
	.loc 1 23 0
	ldr	r2, [r3]
	orr	r2, r2, #160
	str	r2, [r3]
	.loc 1 24 0
	ldr	r2, [r3, #32]
	orr	r2, r2, #30464
	str	r2, [r3, #32]
	.loc 1 26 0
	ldr	r2, [r3, #8]
	orr	r2, r2, #32
	str	r2, [r3, #8]
	.loc 1 27 0
	ldr	r2, [r3, #8]
	.loc 1 30 0
	uxth	r0, r0
.LVL1:
	.loc 1 27 0
	orr	r2, r2, #128
	.loc 1 32 0
	movw	r1, #8204
	.loc 1 27 0
	str	r2, [r3, #8]
	.loc 1 30 0
	strh	r0, [r4, #8]	@ movhi
	.loc 1 32 0
	strh	r1, [r4, #12]	@ movhi
	.loc 1 33 0
	ldr	r4, [sp], #4
	.cfi_restore 4
	.cfi_def_cfa_offset 0
	bx	lr
.L4:
	.align	2
.L3:
	.word	1073887232
	.word	1073872896
	.word	1073759232
	.cfi_endproc
.LFE110:
	.size	initUSART2, .-initUSART2
	.align	2
	.global	putcharUSART2
	.thumb
	.thumb_func
	.type	putcharUSART2, %function
putcharUSART2:
.LFB111:
	.loc 1 36 0
	.cfi_startproc
	@ args = 0, pretend = 0, frame = 0
	@ frame_needed = 0, uses_anonymous_args = 0
	@ link register save eliminated.
.LVL2:
	.loc 1 37 0
	ldr	r1, .L10
.L6:
	.loc 1 37 0 is_stmt 0 discriminator 1
	ldrh	r3, [r1]
	ldr	r2, .L10
	lsls	r3, r3, #25
	bpl	.L6
	.loc 1 39 0 is_stmt 1
	uxth	r0, r0
.LVL3:
	strh	r0, [r2, #4]	@ movhi
	bx	lr
.L11:
	.align	2
.L10:
	.word	1073759232
	.cfi_endproc
.LFE111:
	.size	putcharUSART2, .-putcharUSART2
	.align	2
	.global	sprintUSART2
	.thumb
	.thumb_func
	.type	sprintUSART2, %function
sprintUSART2:
.LFB113:
	.loc 1 213 0
	.cfi_startproc
	@ args = 0, pretend = 0, frame = 0
	@ frame_needed = 0, uses_anonymous_args = 0
	@ link register save eliminated.
.LVL4:
.LBB18:
.LBB19:
	.loc 1 37 0
	ldr	r2, .L25
.LBE19:
.LBE18:
	.loc 1 213 0
	push	{r4, r5, r6}
	.cfi_def_cfa_offset 12
	.cfi_offset 4, -12
	.cfi_offset 5, -8
	.cfi_offset 6, -4
	subs	r4, r0, #1
	addw	r5, r0, #1023
.LBB22:
.LBB23:
	.loc 1 39 0
	movs	r6, #13
.LBE23:
.LBE22:
.LBB25:
.LBB20:
	.loc 1 37 0
	mov	r0, r2
.LVL5:
.L13:
.LBE20:
.LBE25:
	.loc 1 216 0
	ldrb	r1, [r4, #1]!	@ zero_extendqisi2
.LVL6:
	cbz	r1, .L12
.L21:
.LBB26:
.LBB21:
	.loc 1 37 0
	ldrh	r3, [r2]
	lsls	r3, r3, #25
	bpl	.L21
	.loc 1 39 0
	uxth	r1, r1
	strh	r1, [r0, #4]	@ movhi
.LBE21:
.LBE26:
	.loc 1 219 0
	ldrb	r3, [r4]	@ zero_extendqisi2
	cmp	r3, #10
	beq	.L16
.L15:
.LVL7:
	.loc 1 223 0
	cmp	r4, r5
	bne	.L13
.LVL8:
.L12:
	.loc 1 226 0
	pop	{r4, r5, r6}
	.cfi_remember_state
	.cfi_restore 6
	.cfi_restore 5
	.cfi_restore 4
	.cfi_def_cfa_offset 0
.LVL9:
	bx	lr
.L16:
	.cfi_restore_state
.LBB27:
.LBB24:
	.loc 1 37 0
	ldrh	r3, [r2]
	lsls	r3, r3, #25
	bpl	.L16
	.loc 1 39 0
	strh	r6, [r0, #4]	@ movhi
	b	.L15
.L26:
	.align	2
.L25:
	.word	1073759232
.LBE24:
.LBE27:
	.cfi_endproc
.LFE113:
	.size	sprintUSART2, .-sprintUSART2
	.align	2
	.global	printUSART2
	.thumb
	.thumb_func
	.type	printUSART2, %function
printUSART2:
.LFB112:
	.loc 1 43 0
	.cfi_startproc
	@ args = 4, pretend = 16, frame = 48
	@ frame_needed = 0, uses_anonymous_args = 1
.LVL10:
	push	{r0, r1, r2, r3}
	.cfi_def_cfa_offset 16
	.cfi_offset 0, -16
	.cfi_offset 1, -12
	.cfi_offset 2, -8
	.cfi_offset 3, -4
	push	{r4, r5, r6, r7, r8, lr}
	.cfi_def_cfa_offset 40
	.cfi_offset 4, -40
	.cfi_offset 5, -36
	.cfi_offset 6, -32
	.cfi_offset 7, -28
	.cfi_offset 8, -24
	.cfi_offset 14, -20
	sub	sp, sp, #48
	.cfi_def_cfa_offset 88
	.loc 1 43 0
	add	r3, sp, #72
	ldr	r6, [r3], #4
	.loc 1 53 0
	str	r3, [sp, #4]
.LVL11:
	.loc 1 54 0
	ldrb	r2, [r6]	@ zero_extendqisi2
	cbz	r2, .L27
.LBB28:
.LBB29:
	.loc 1 37 0
	ldr	r4, .L89
.LBE29:
.LBE28:
	.loc 1 54 0
	movs	r3, #0
.LBB32:
.LBB30:
	.loc 1 37 0
	mov	r7, r4
.LBE30:
.LBE32:
	.loc 1 54 0
	mov	r5, r3
	mov	r1, r6
.LBB33:
.LBB34:
	.loc 1 39 0
	mov	r8, #13
.LVL12:
.L58:
.LBE34:
.LBE33:
	.loc 1 56 0
	cmp	r2, #37
	beq	.L78
.L70:
.LBB36:
.LBB31:
	.loc 1 37 0
	ldrh	r3, [r4]
	lsls	r0, r3, #25
	bpl	.L70
	.loc 1 39 0
	uxth	r2, r2
	strh	r2, [r7, #4]	@ movhi
.LBE31:
.LBE36:
	.loc 1 202 0
	ldrb	r3, [r1]	@ zero_extendqisi2
	cmp	r3, #10
	beq	.L57
.L30:
	.loc 1 205 0
	adds	r5, r5, #1
.LVL13:
	uxth	r5, r5
.LVL14:
	.loc 1 54 0
	mov	r3, r5
	ldrb	r2, [r6, r5]	@ zero_extendqisi2
	adds	r1, r6, r5
	cmp	r2, #0
	bne	.L58
.LVL15:
.L27:
	.loc 1 210 0
	add	sp, sp, #48
	.cfi_remember_state
	.cfi_def_cfa_offset 40
.LVL16:
	@ sp needed
	pop	{r4, r5, r6, r7, r8, lr}
	.cfi_restore 14
	.cfi_restore 8
	.cfi_restore 7
	.cfi_restore 6
	.cfi_restore 5
	.cfi_restore 4
	.cfi_def_cfa_offset 16
	add	sp, sp, #16
	.cfi_restore 3
	.cfi_restore 2
	.cfi_restore 1
	.cfi_restore 0
	.cfi_def_cfa_offset 0
	bx	lr
.LVL17:
.L57:
	.cfi_restore_state
.LBB37:
.LBB35:
	.loc 1 37 0
	ldrh	r3, [r4]
	lsls	r3, r3, #25
	bpl	.L57
	.loc 1 39 0
	strh	r8, [r7, #4]	@ movhi
	b	.L30
.L78:
.LBE35:
.LBE37:
	.loc 1 58 0
	add	r3, r3, r6
	ldrb	r2, [r3, #1]	@ zero_extendqisi2
	cmp	r2, #0
	beq	.L30
	.loc 1 60 0
	subs	r2, r2, #98
	cmp	r2, #22
	bhi	.L31
	tbb	[pc, r2]
.L33:
	.byte	(.L32-.L33)/2
	.byte	(.L34-.L33)/2
	.byte	(.L35-.L33)/2
	.byte	(.L31-.L33)/2
	.byte	(.L36-.L33)/2
	.byte	(.L31-.L33)/2
	.byte	(.L31-.L33)/2
	.byte	(.L31-.L33)/2
	.byte	(.L31-.L33)/2
	.byte	(.L31-.L33)/2
	.byte	(.L31-.L33)/2
	.byte	(.L31-.L33)/2
	.byte	(.L31-.L33)/2
	.byte	(.L31-.L33)/2
	.byte	(.L31-.L33)/2
	.byte	(.L31-.L33)/2
	.byte	(.L31-.L33)/2
	.byte	(.L37-.L33)/2
	.byte	(.L31-.L33)/2
	.byte	(.L31-.L33)/2
	.byte	(.L31-.L33)/2
	.byte	(.L31-.L33)/2
	.byte	(.L38-.L33)/2
	.p2align 1
.L38:
	.loc 1 156 0
	ldrb	r3, [r3, #2]	@ zero_extendqisi2
	cmp	r3, #98
	beq	.L79
	.loc 1 161 0
	cmp	r3, #104
	beq	.L80
	.loc 1 166 0
	cmp	r3, #119
	.loc 1 168 0
	ldr	r3, [sp, #4]
	.loc 1 166 0
	beq	.L81
	.loc 1 173 0
	adds	r2, r3, #4
	.loc 1 175 0
	subs	r5, r5, #1
.LVL18:
	.loc 1 173 0
	ldr	r3, [r3]
	str	r2, [sp, #4]
	.loc 1 175 0
	uxth	r5, r5
	.loc 1 173 0
	str	r3, [sp]
.LVL19:
	.loc 1 174 0
	mov	r0, #2048
	b	.L54
.LVL20:
.L37:
	.loc 1 127 0
	ldr	r3, [sp, #4]
	adds	r2, r3, #4
	.loc 1 128 0
	ldr	r0, [r3]
	.loc 1 127 0
	str	r2, [sp, #4]
.LVL21:
	.loc 1 128 0
	bl	sprintUSART2
.LVL22:
.L61:
	.loc 1 196 0
	adds	r5, r5, #1
.LVL23:
	uxth	r5, r5
.LVL24:
	b	.L30
.L36:
.LBB38:
	.loc 1 134 0
	ldr	r3, [sp, #4]
	adds	r3, r3, #7
	bic	r3, r3, #7
	ldrd	r0, [r3]
.LVL25:
	adds	r3, r3, #8
	.loc 1 136 0
	lsrs	r2, r0, #29
.LVL26:
	.loc 1 138 0
	bic	lr, r1, #-134217728
	.loc 1 141 0
	cmp	r0, #0
	.loc 1 134 0
	str	r3, [sp, #4]
	.loc 1 140 0
	orr	r3, r2, lr, lsl #3
	.loc 1 141 0
	sbcs	r2, r1, #0
.LVL27:
	.loc 1 142 0
	it	lt
	orrlt	r3, r3, #-2147483648
	.loc 1 144 0
	movs	r0, #0
.LVL28:
	and	r1, r1, #1073741824
	.loc 1 142 0
	str	r3, [sp]
	.loc 1 144 0
	orrs	r3, r0, r1
	bne	.L82
.L52:
.LVL29:
.LBE38:
	.loc 1 174 0
	mov	r0, #256
.LVL30:
.L60:
	.loc 1 193 0
	add	r2, sp, #8
	mov	r1, sp
	bl	getStr4NumMISC
.LVL31:
	.loc 1 194 0
	add	r0, sp, #8
	bl	sprintUSART2
.LVL32:
	b	.L61
.L35:
	.loc 1 92 0
	ldrb	r3, [r3, #2]	@ zero_extendqisi2
	cmp	r3, #98
	beq	.L83
	.loc 1 97 0
	cmp	r3, #104
	beq	.L84
	.loc 1 102 0
	cmp	r3, #119
	.loc 1 104 0
	ldr	r3, [sp, #4]
	.loc 1 102 0
	beq	.L85
	.loc 1 109 0
	adds	r2, r3, #4
	.loc 1 111 0
	subs	r5, r5, #1
.LVL33:
	.loc 1 109 0
	ldr	r3, [r3]
	str	r2, [sp, #4]
	.loc 1 111 0
	uxth	r5, r5
	.loc 1 109 0
	str	r3, [sp]
.LVL34:
	.loc 1 110 0
	movs	r0, #32
.LVL35:
	b	.L54
.LVL36:
.L32:
	.loc 1 64 0
	ldrb	r3, [r3, #2]	@ zero_extendqisi2
	cmp	r3, #98
	beq	.L86
	.loc 1 69 0
	cmp	r3, #104
	beq	.L87
	.loc 1 74 0
	cmp	r3, #119
	.loc 1 76 0
	ldr	r3, [sp, #4]
	.loc 1 74 0
	beq	.L88
	.loc 1 81 0
	adds	r2, r3, #4
	.loc 1 83 0
	subs	r5, r5, #1
.LVL37:
	.loc 1 81 0
	ldr	r3, [r3]
	str	r2, [sp, #4]
	.loc 1 83 0
	uxth	r5, r5
	.loc 1 81 0
	str	r3, [sp]
.LVL38:
	.loc 1 82 0
	movs	r0, #4
.LVL39:
.L54:
	.loc 1 178 0
	adds	r5, r5, #1
.LVL40:
	uxth	r5, r5
.LVL41:
	.loc 1 180 0
	b	.L60
.LVL42:
.L34:
.LBB39:
	.loc 1 120 0
	ldr	r3, [sp, #4]
	adds	r1, r3, #4
	ldrb	r2, [r3]	@ zero_extendqisi2
.LVL43:
	str	r1, [sp, #4]
.L48:
.LBB40:
.LBB41:
	.loc 1 37 0
	ldrh	r3, [r4]
	lsls	r3, r3, #25
	bpl	.L48
	.loc 1 39 0
	uxth	r3, r2
	strh	r3, [r7, #4]	@ movhi
.LVL44:
.LBE41:
.LBE40:
	.loc 1 123 0
	b	.L61
.LVL45:
.L31:
.LBE39:
	.loc 1 184 0
	movs	r3, #0
	str	r3, [sp]
.LVL46:
	.loc 1 187 0
	b	.L61
.LVL47:
.L82:
.LBB42:
	.loc 1 145 0
	ldr	r3, [sp]
	orr	r3, r3, #1073741824
	str	r3, [sp]
	b	.L52
.LVL48:
.L83:
.LBE42:
	.loc 1 94 0
	ldr	r3, [sp, #4]
	adds	r2, r3, #4
	ldr	r3, [r3]
	str	r2, [sp, #4]
	str	r3, [sp]
.LVL49:
	.loc 1 95 0
	movs	r0, #8
	b	.L54
.LVL50:
.L86:
	.loc 1 66 0
	ldr	r3, [sp, #4]
	adds	r2, r3, #4
	ldr	r3, [r3]
	str	r2, [sp, #4]
	str	r3, [sp]
.LVL51:
	.loc 1 67 0
	movs	r0, #1
	b	.L54
.LVL52:
.L79:
	.loc 1 158 0
	ldr	r3, [sp, #4]
	adds	r2, r3, #4
	ldr	r3, [r3]
	str	r2, [sp, #4]
	str	r3, [sp]
.LVL53:
	.loc 1 159 0
	mov	r0, #512
	b	.L54
.LVL54:
.L87:
	.loc 1 71 0
	ldr	r3, [sp, #4]
	adds	r2, r3, #4
	ldr	r3, [r3]
	str	r2, [sp, #4]
	str	r3, [sp]
.LVL55:
	.loc 1 72 0
	movs	r0, #2
	b	.L54
.LVL56:
.L80:
	.loc 1 163 0
	ldr	r3, [sp, #4]
	adds	r2, r3, #4
	ldr	r3, [r3]
	str	r2, [sp, #4]
	str	r3, [sp]
.LVL57:
	.loc 1 164 0
	mov	r0, #1024
	b	.L54
.LVL58:
.L84:
	.loc 1 99 0
	ldr	r3, [sp, #4]
	adds	r2, r3, #4
	ldr	r3, [r3]
	str	r2, [sp, #4]
	str	r3, [sp]
.LVL59:
	.loc 1 100 0
	movs	r0, #16
	b	.L54
.LVL60:
.L88:
	.loc 1 76 0
	adds	r2, r3, #4
	ldr	r3, [r3]
	str	r2, [sp, #4]
	str	r3, [sp]
.LVL61:
	.loc 1 77 0
	movs	r0, #4
	b	.L54
.LVL62:
.L81:
	.loc 1 168 0
	adds	r2, r3, #4
	ldr	r3, [r3]
	str	r2, [sp, #4]
	str	r3, [sp]
.LVL63:
	.loc 1 169 0
	mov	r0, #2048
	b	.L54
.LVL64:
.L85:
	.loc 1 104 0
	adds	r2, r3, #4
	ldr	r3, [r3]
	str	r2, [sp, #4]
	str	r3, [sp]
.LVL65:
	.loc 1 105 0
	movs	r0, #32
	b	.L54
.L90:
	.align	2
.L89:
	.word	1073759232
	.cfi_endproc
.LFE112:
	.size	printUSART2, .-printUSART2
	.align	2
	.global	getcharUSART2
	.thumb
	.thumb_func
	.type	getcharUSART2, %function
getcharUSART2:
.LFB114:
	.loc 1 229 0
	.cfi_startproc
	@ args = 0, pretend = 0, frame = 0
	@ frame_needed = 0, uses_anonymous_args = 0
	@ link register save eliminated.
	.loc 1 232 0
	ldr	r1, .L95
.L92:
	.loc 1 232 0 is_stmt 0 discriminator 1
	ldrh	r3, [r1]
	ldr	r2, .L95
	lsls	r3, r3, #26
	bpl	.L92
	.loc 1 234 0 is_stmt 1
	ldrh	r0, [r2, #4]
.LVL66:
	.loc 1 235 0
	ldrh	r3, [r2]
	bic	r3, r3, #32
	lsls	r3, r3, #16
	lsrs	r3, r3, #16
	.loc 1 238 0
	uxtb	r0, r0
	.loc 1 235 0
	strh	r3, [r2]	@ movhi
	.loc 1 238 0
	bx	lr
.L96:
	.align	2
.L95:
	.word	1073759232
	.cfi_endproc
.LFE114:
	.size	getcharUSART2, .-getcharUSART2
	.align	2
	.global	enableRxUSART2
	.thumb
	.thumb_func
	.type	enableRxUSART2, %function
enableRxUSART2:
.LFB115:
	.loc 1 241 0
	.cfi_startproc
	@ args = 0, pretend = 0, frame = 0
	@ frame_needed = 0, uses_anonymous_args = 0
	@ link register save eliminated.
	.loc 1 242 0
	ldr	r3, .L98
	movw	r2, #8196
	strh	r2, [r3, #12]	@ movhi
	bx	lr
.L99:
	.align	2
.L98:
	.word	1073759232
	.cfi_endproc
.LFE115:
	.size	enableRxUSART2, .-enableRxUSART2
	.align	2
	.global	getRxStateUSART2
	.thumb
	.thumb_func
	.type	getRxStateUSART2, %function
getRxStateUSART2:
.LFB116:
	.loc 1 246 0
	.cfi_startproc
	@ args = 0, pretend = 0, frame = 0
	@ frame_needed = 0, uses_anonymous_args = 0
	@ link register save eliminated.
.LVL67:
	.loc 1 248 0
	ldr	r3, .L101
	ldrh	r0, [r3]
.LVL68:
	eor	r0, r0, #32
.LVL69:
	.loc 1 252 0
	ubfx	r0, r0, #5, #1
	bx	lr
.L102:
	.align	2
.L101:
	.word	1073759232
	.cfi_endproc
.LFE116:
	.size	getRxStateUSART2, .-getRxStateUSART2
	.align	2
	.global	enIrqUSART2
	.thumb
	.thumb_func
	.type	enIrqUSART2, %function
enIrqUSART2:
.LFB117:
	.loc 1 256 0
	.cfi_startproc
	@ args = 0, pretend = 0, frame = 0
	@ frame_needed = 0, uses_anonymous_args = 0
	@ link register save eliminated.
	.loc 1 257 0
	ldr	r2, .L104
.LBB43:
.LBB44:
	.file 2 "../../../../STM32F407/Libraries/CMSIS/Include/core_cm4.h"
	.loc 2 1075 0
	ldr	r1, .L104+4
.LBE44:
.LBE43:
	.loc 1 257 0
	ldrh	r3, [r2, #12]
	bic	r3, r3, #8192
	lsls	r3, r3, #16
	lsrs	r3, r3, #16
.LBB47:
.LBB45:
	.loc 2 1075 0
	movs	r0, #64
.LBE45:
.LBE47:
	.loc 1 257 0
	strh	r3, [r2, #12]	@ movhi
.LVL70:
.LBB48:
.LBB46:
	.loc 2 1075 0
	str	r0, [r1, #4]
.LBE46:
.LBE48:
	.loc 1 260 0
	ldrh	r3, [r2, #12]
	uxth	r3, r3
	orr	r3, r3, #8192
	orr	r3, r3, #36
	strh	r3, [r2, #12]	@ movhi
	bx	lr
.L105:
	.align	2
.L104:
	.word	1073759232
	.word	-536813312
	.cfi_endproc
.LFE117:
	.size	enIrqUSART2, .-enIrqUSART2
	.align	2
	.global	USART2_IRQHandler
	.thumb
	.thumb_func
	.type	USART2_IRQHandler, %function
USART2_IRQHandler:
.LFB118:
	.loc 1 264 0
	.cfi_startproc
	@ args = 0, pretend = 0, frame = 0
	@ frame_needed = 0, uses_anonymous_args = 0
	@ link register save eliminated.
	.loc 1 267 0
	ldr	r2, .L113
	ldrh	r3, [r2]
	lsls	r3, r3, #26
	bpl	.L112
	.loc 1 269 0
	ldr	r3, .L113+4
	ldrh	r1, [r3]
	ldrh	r0, [r2, #4]
	.loc 1 264 0
	push	{r4}
	.cfi_def_cfa_offset 4
	.cfi_offset 4, -4
	.loc 1 269 0
	uxth	r2, r1
	ldr	r4, .L113+8
	uxtb	r1, r0
	strb	r1, [r4, r2]
	.loc 1 270 0
	ldrh	r2, [r3]
	adds	r2, r2, #1
	uxth	r2, r2
	.loc 1 271 0
	movs	r1, #1
	.loc 1 270 0
	strh	r2, [r3]	@ movhi
	.loc 1 271 0
	strb	r1, [r3, #2]
	.loc 1 273 0
	ldrh	r2, [r3]
	.loc 1 278 0
	ldr	r4, [sp], #4
	.cfi_restore 4
	.cfi_def_cfa_offset 0
	.loc 1 273 0
	uxth	r2, r2
	cmp	r2, #512
	.loc 1 275 0
	itt	cs
	movcs	r2, #0
	strhcs	r2, [r3]	@ movhi
.L112:
	.loc 1 278 0
	bx	lr
.L114:
	.align	2
.L113:
	.word	1073759232
	.word	.LANCHOR0
	.word	g_usart2_buffer
	.cfi_endproc
.LFE118:
	.size	USART2_IRQHandler, .-USART2_IRQHandler
	.align	2
	.global	serviceUSART2
	.thumb
	.thumb_func
	.type	serviceUSART2, %function
serviceUSART2:
.LFB119:
	.loc 1 280 0
	.cfi_startproc
	@ args = 0, pretend = 0, frame = 0
	@ frame_needed = 0, uses_anonymous_args = 0
	@ link register save eliminated.
	.loc 1 281 0
	ldr	r1, .L134
	ldr	r0, .L134+4
	ldrh	r3, [r1, #4]
	uxth	r3, r3
	adds	r2, r3, #1
	uxth	r2, r2
	strh	r2, [r1, #4]	@ movhi
	ldrb	r3, [r0, r3]	@ zero_extendqisi2
	subs	r3, r3, #32
	cmp	r3, #89
	bhi	.L115
	tbb	[pc, r3]
.L118:
	.byte	(.L117-.L118)/2
	.byte	(.L115-.L118)/2
	.byte	(.L115-.L118)/2
	.byte	(.L115-.L118)/2
	.byte	(.L115-.L118)/2
	.byte	(.L115-.L118)/2
	.byte	(.L115-.L118)/2
	.byte	(.L115-.L118)/2
	.byte	(.L115-.L118)/2
	.byte	(.L115-.L118)/2
	.byte	(.L115-.L118)/2
	.byte	(.L115-.L118)/2
	.byte	(.L115-.L118)/2
	.byte	(.L115-.L118)/2
	.byte	(.L115-.L118)/2
	.byte	(.L115-.L118)/2
	.byte	(.L115-.L118)/2
	.byte	(.L115-.L118)/2
	.byte	(.L115-.L118)/2
	.byte	(.L115-.L118)/2
	.byte	(.L115-.L118)/2
	.byte	(.L115-.L118)/2
	.byte	(.L115-.L118)/2
	.byte	(.L115-.L118)/2
	.byte	(.L115-.L118)/2
	.byte	(.L115-.L118)/2
	.byte	(.L115-.L118)/2
	.byte	(.L115-.L118)/2
	.byte	(.L115-.L118)/2
	.byte	(.L115-.L118)/2
	.byte	(.L115-.L118)/2
	.byte	(.L115-.L118)/2
	.byte	(.L115-.L118)/2
	.byte	(.L115-.L118)/2
	.byte	(.L115-.L118)/2
	.byte	(.L115-.L118)/2
	.byte	(.L115-.L118)/2
	.byte	(.L115-.L118)/2
	.byte	(.L115-.L118)/2
	.byte	(.L115-.L118)/2
	.byte	(.L115-.L118)/2
	.byte	(.L115-.L118)/2
	.byte	(.L115-.L118)/2
	.byte	(.L115-.L118)/2
	.byte	(.L115-.L118)/2
	.byte	(.L115-.L118)/2
	.byte	(.L115-.L118)/2
	.byte	(.L115-.L118)/2
	.byte	(.L115-.L118)/2
	.byte	(.L115-.L118)/2
	.byte	(.L115-.L118)/2
	.byte	(.L115-.L118)/2
	.byte	(.L115-.L118)/2
	.byte	(.L115-.L118)/2
	.byte	(.L115-.L118)/2
	.byte	(.L115-.L118)/2
	.byte	(.L115-.L118)/2
	.byte	(.L115-.L118)/2
	.byte	(.L115-.L118)/2
	.byte	(.L115-.L118)/2
	.byte	(.L115-.L118)/2
	.byte	(.L115-.L118)/2
	.byte	(.L115-.L118)/2
	.byte	(.L115-.L118)/2
	.byte	(.L115-.L118)/2
	.byte	(.L119-.L118)/2
	.byte	(.L115-.L118)/2
	.byte	(.L115-.L118)/2
	.byte	(.L120-.L118)/2
	.byte	(.L121-.L118)/2
	.byte	(.L122-.L118)/2
	.byte	(.L123-.L118)/2
	.byte	(.L124-.L118)/2
	.byte	(.L115-.L118)/2
	.byte	(.L125-.L118)/2
	.byte	(.L126-.L118)/2
	.byte	(.L115-.L118)/2
	.byte	(.L127-.L118)/2
	.byte	(.L128-.L118)/2
	.byte	(.L115-.L118)/2
	.byte	(.L115-.L118)/2
	.byte	(.L115-.L118)/2
	.byte	(.L115-.L118)/2
	.byte	(.L129-.L118)/2
	.byte	(.L130-.L118)/2
	.byte	(.L131-.L118)/2
	.byte	(.L115-.L118)/2
	.byte	(.L132-.L118)/2
	.byte	(.L115-.L118)/2
	.byte	(.L133-.L118)/2
	.p2align 1
.L133:
	.loc 1 333 0
	ldr	r3, .L134+8
	.loc 1 334 0
	ldr	r0, .L134+12
	.loc 1 333 0
	movs	r2, #9
	strb	r2, [r3]
	.loc 1 334 0
	b	printUSART2
.LVL71:
.L117:
	.loc 1 363 0
	ldr	r3, .L134+8
	.loc 1 364 0
	ldr	r0, .L134+16
	.loc 1 363 0
	movs	r2, #0
	strb	r2, [r3]
	.loc 1 364 0
	b	printUSART2
.LVL72:
.L119:
	.loc 1 285 0
	ldr	r3, .L134+8
	.loc 1 286 0
	ldr	r0, .L134+20
	.loc 1 285 0
	movs	r2, #1
	strb	r2, [r3]
	.loc 1 286 0
	b	printUSART2
.LVL73:
.L120:
	.loc 1 309 0
	ldr	r3, .L134+8
	.loc 1 310 0
	ldr	r0, .L134+24
	.loc 1 309 0
	movs	r2, #5
	strb	r2, [r3]
	.loc 1 310 0
	b	printUSART2
.LVL74:
.L121:
	.loc 1 303 0
	ldr	r3, .L134+8
	.loc 1 304 0
	ldr	r0, .L134+28
	.loc 1 303 0
	movs	r2, #4
	strb	r2, [r3]
	.loc 1 304 0
	b	printUSART2
.LVL75:
.L122:
	.loc 1 315 0
	ldr	r3, .L134+8
	.loc 1 316 0
	ldr	r0, .L134+32
	.loc 1 315 0
	movs	r2, #6
	strb	r2, [r3]
	.loc 1 316 0
	b	printUSART2
.LVL76:
.L123:
	.loc 1 327 0
	ldr	r3, .L134+8
	.loc 1 328 0
	ldr	r0, .L134+36
	.loc 1 327 0
	movs	r2, #8
	strb	r2, [r3]
	.loc 1 328 0
	b	printUSART2
.LVL77:
.L124:
	.loc 1 339 0
	ldr	r3, .L134+8
	.loc 1 340 0
	ldr	r0, .L134+40
	.loc 1 339 0
	movs	r2, #10
	strb	r2, [r3]
	.loc 1 340 0
	b	printUSART2
.LVL78:
.L125:
	.loc 1 351 0
	ldr	r3, .L134+8
	.loc 1 352 0
	ldr	r0, .L134+44
	.loc 1 351 0
	movs	r2, #12
	strb	r2, [r3]
	.loc 1 352 0
	b	printUSART2
.LVL79:
.L126:
	.loc 1 357 0
	ldr	r3, .L134+8
	.loc 1 358 0
	ldr	r0, .L134+48
	.loc 1 357 0
	movs	r2, #13
	strb	r2, [r3]
	.loc 1 358 0
	b	printUSART2
.LVL80:
.L127:
	.loc 1 369 0
	ldr	r2, .L134+52
	.loc 1 370 0
	ldr	r0, .L134+56
	.loc 1 369 0
	ldrb	r3, [r2]	@ zero_extendqisi2
	adds	r3, r3, #1
	uxtb	r3, r3
	strb	r3, [r2]
	.loc 1 370 0
	b	printUSART2
.LVL81:
.L128:
	.loc 1 375 0
	ldr	r2, .L134+52
	.loc 1 376 0
	ldr	r0, .L134+60
	.loc 1 375 0
	ldrb	r3, [r2]	@ zero_extendqisi2
	subs	r3, r3, #1
	uxtb	r3, r3
	strb	r3, [r2]
	.loc 1 376 0
	b	printUSART2
.LVL82:
.L129:
	.loc 1 297 0
	ldr	r3, .L134+8
	.loc 1 298 0
	ldr	r0, .L134+64
	.loc 1 297 0
	movs	r2, #3
	strb	r2, [r3]
	.loc 1 298 0
	b	printUSART2
.LVL83:
.L130:
	.loc 1 321 0
	ldr	r3, .L134+8
	.loc 1 322 0
	ldr	r0, .L134+68
	.loc 1 321 0
	movs	r2, #7
	strb	r2, [r3]
	.loc 1 322 0
	b	printUSART2
.LVL84:
.L131:
	.loc 1 345 0
	ldr	r3, .L134+8
	.loc 1 346 0
	ldr	r0, .L134+72
	.loc 1 345 0
	movs	r2, #11
	strb	r2, [r3]
	.loc 1 346 0
	b	printUSART2
.LVL85:
.L132:
	.loc 1 291 0
	ldr	r3, .L134+8
	.loc 1 292 0
	ldr	r0, .L134+76
	.loc 1 291 0
	movs	r2, #2
	strb	r2, [r3]
	.loc 1 292 0
	b	printUSART2
.LVL86:
.L115:
	bx	lr
.L135:
	.align	2
.L134:
	.word	.LANCHOR0
	.word	g_usart2_buffer
	.word	note
	.word	.LC8
	.word	.LC13
	.word	.LC0
	.word	.LC4
	.word	.LC3
	.word	.LC5
	.word	.LC7
	.word	.LC9
	.word	.LC11
	.word	.LC12
	.word	.LANCHOR1
	.word	.LC14
	.word	.LC15
	.word	.LC2
	.word	.LC6
	.word	.LC10
	.word	.LC1
	.cfi_endproc
.LFE119:
	.size	serviceUSART2, .-serviceUSART2
	.align	2
	.global	chkBuffUSART2
	.thumb
	.thumb_func
	.type	chkBuffUSART2, %function
chkBuffUSART2:
.LFB120:
	.loc 1 386 0
	.cfi_startproc
	@ args = 0, pretend = 0, frame = 0
	@ frame_needed = 0, uses_anonymous_args = 0
	push	{r4, lr}
	.cfi_def_cfa_offset 8
	.cfi_offset 4, -8
	.cfi_offset 14, -4
	.loc 1 388 0
	ldr	r4, .L141
	ldrh	r2, [r4, #4]
	ldrh	r3, [r4]
	uxth	r2, r2
	uxth	r3, r3
	cmp	r2, r3
	beq	.L136
	.loc 1 390 0
	bl	serviceUSART2
.LVL87:
	.loc 1 392 0
	ldrh	r3, [r4, #4]
	uxth	r3, r3
	cmp	r3, #512
	.loc 1 394 0
	itt	cs
	movcs	r3, #0
	strhcs	r3, [r4, #4]	@ movhi
.L136:
	pop	{r4, pc}
.L142:
	.align	2
.L141:
	.word	.LANCHOR0
	.cfi_endproc
.LFE120:
	.size	chkBuffUSART2, .-chkBuffUSART2
	.align	2
	.global	initUSART3
	.thumb
	.thumb_func
	.type	initUSART3, %function
initUSART3:
.LFB121:
	.loc 1 400 0
	.cfi_startproc
	@ args = 0, pretend = 0, frame = 0
	@ frame_needed = 0, uses_anonymous_args = 0
	@ link register save eliminated.
.LVL88:
	.loc 1 403 0
	ldr	r2, .L145
	.loc 1 404 0
	ldr	r3, .L145+4
	.loc 1 403 0
	ldr	r1, [r2, #48]
	orr	r1, r1, #8
	.loc 1 400 0
	push	{r4}
	.cfi_def_cfa_offset 4
	.cfi_offset 4, -4
	.loc 1 403 0
	str	r1, [r2, #48]
	.loc 1 404 0
	ldr	r1, [r3]
	.loc 1 410 0
	ldr	r4, .L145+8
	.loc 1 404 0
	bic	r1, r1, #983040
	str	r1, [r3]
	.loc 1 405 0
	ldr	r1, [r3]
	orr	r1, r1, #655360
	str	r1, [r3]
	.loc 1 406 0
	ldr	r1, [r3, #36]
	orr	r1, r1, #119
	str	r1, [r3, #36]
	.loc 1 409 0
	ldr	r3, [r2, #64]
	.loc 1 410 0
	uxth	r0, r0
.LVL89:
	.loc 1 409 0
	orr	r3, r3, #262144
	.loc 1 411 0
	movw	r1, #8204
	.loc 1 409 0
	str	r3, [r2, #64]
	.loc 1 410 0
	strh	r0, [r4, #8]	@ movhi
	.loc 1 411 0
	strh	r1, [r4, #12]	@ movhi
	.loc 1 412 0
	ldr	r4, [sp], #4
	.cfi_restore 4
	.cfi_def_cfa_offset 0
	bx	lr
.L146:
	.align	2
.L145:
	.word	1073887232
	.word	1073875968
	.word	1073760256
	.cfi_endproc
.LFE121:
	.size	initUSART3, .-initUSART3
	.align	2
	.global	enIrqUSART3
	.thumb
	.thumb_func
	.type	enIrqUSART3, %function
enIrqUSART3:
.LFB122:
	.loc 1 415 0
	.cfi_startproc
	@ args = 0, pretend = 0, frame = 0
	@ frame_needed = 0, uses_anonymous_args = 0
	@ link register save eliminated.
	.loc 1 416 0
	ldr	r2, .L148
.LBB49:
.LBB50:
	.loc 2 1075 0
	ldr	r1, .L148+4
.LBE50:
.LBE49:
	.loc 1 416 0
	ldrh	r3, [r2, #12]
	bic	r3, r3, #8192
	lsls	r3, r3, #16
	lsrs	r3, r3, #16
.LBB53:
.LBB51:
	.loc 2 1075 0
	movs	r0, #128
.LBE51:
.LBE53:
	.loc 1 416 0
	strh	r3, [r2, #12]	@ movhi
.LVL90:
.LBB54:
.LBB52:
	.loc 2 1075 0
	str	r0, [r1, #4]
.LBE52:
.LBE54:
	.loc 1 419 0
	ldrh	r3, [r2, #12]
	uxth	r3, r3
	orr	r3, r3, #8192
	orr	r3, r3, #36
	strh	r3, [r2, #12]	@ movhi
	bx	lr
.L149:
	.align	2
.L148:
	.word	1073760256
	.word	-536813312
	.cfi_endproc
.LFE122:
	.size	enIrqUSART3, .-enIrqUSART3
	.align	2
	.global	USART3_IRQHandler
	.thumb
	.thumb_func
	.type	USART3_IRQHandler, %function
USART3_IRQHandler:
.LFB123:
	.loc 1 423 0
	.cfi_startproc
	@ args = 0, pretend = 0, frame = 0
	@ frame_needed = 0, uses_anonymous_args = 0
	@ link register save eliminated.
	.loc 1 424 0
	ldr	r3, .L157
	ldrh	r2, [r3]
	lsls	r2, r2, #26
	bpl	.L156
	.loc 1 426 0
	ldr	r2, .L157+4
	ldrh	r1, [r2, #6]
	ldrh	r0, [r3, #4]
	.loc 1 423 0
	push	{r4}
	.cfi_def_cfa_offset 4
	.cfi_offset 4, -4
	.loc 1 426 0
	uxth	r3, r1
	ldr	r4, .L157+8
	uxtb	r1, r0
	strb	r1, [r4, r3]
	.loc 1 427 0
	ldrh	r3, [r2, #6]
	.loc 1 434 0
	ldr	r4, [sp], #4
	.cfi_restore 4
	.cfi_def_cfa_offset 0
	.loc 1 427 0
	adds	r3, r3, #1
	uxth	r3, r3
	strh	r3, [r2, #6]	@ movhi
	.loc 1 429 0
	ldrh	r3, [r2, #6]
	uxth	r3, r3
	cmp	r3, #512
	.loc 1 431 0
	itt	cs
	movcs	r3, #0
	strhcs	r3, [r2, #6]	@ movhi
.L156:
	.loc 1 434 0
	bx	lr
.L158:
	.align	2
.L157:
	.word	1073760256
	.word	.LANCHOR0
	.word	g_usart3_buffer
	.cfi_endproc
.LFE123:
	.size	USART3_IRQHandler, .-USART3_IRQHandler
	.align	2
	.global	chkRxBuffUSART3
	.thumb
	.thumb_func
	.type	chkRxBuffUSART3, %function
chkRxBuffUSART3:
.LFB124:
	.loc 1 437 0
	.cfi_startproc
	@ args = 0, pretend = 0, frame = 0
	@ frame_needed = 0, uses_anonymous_args = 0
	@ link register save eliminated.
	.loc 1 438 0
	ldr	r3, .L161
	ldrh	r1, [r3, #8]
	ldrh	r2, [r3, #6]
	uxth	r1, r1
	uxth	r2, r2
	cmp	r1, r2
	beq	.L159
	.loc 1 440 0
	ldrh	r2, [r3, #8]
	uxth	r2, r2
	cmp	r2, #512
	.loc 1 442 0
	itt	cs
	movcs	r2, #0
	strhcs	r2, [r3, #8]	@ movhi
.L159:
	bx	lr
.L162:
	.align	2
.L161:
	.word	.LANCHOR0
	.cfi_endproc
.LFE124:
	.size	chkRxBuffUSART3, .-chkRxBuffUSART3
	.align	2
	.global	putcharUSART3
	.thumb
	.thumb_func
	.type	putcharUSART3, %function
putcharUSART3:
.LFB125:
	.loc 1 448 0
	.cfi_startproc
	@ args = 0, pretend = 0, frame = 0
	@ frame_needed = 0, uses_anonymous_args = 0
	@ link register save eliminated.
.LVL91:
	.loc 1 451 0
	ldr	r1, .L167
.L164:
	.loc 1 451 0 is_stmt 0 discriminator 1
	ldrh	r3, [r1]
	ldr	r2, .L167
	lsls	r3, r3, #25
	bpl	.L164
	.loc 1 452 0 is_stmt 1
	uxth	r0, r0
.LVL92:
	strh	r0, [r2, #4]	@ movhi
	bx	lr
.L168:
	.align	2
.L167:
	.word	1073760256
	.cfi_endproc
.LFE125:
	.size	putcharUSART3, .-putcharUSART3
	.align	2
	.global	getcharUSART3
	.thumb
	.thumb_func
	.type	getcharUSART3, %function
getcharUSART3:
.LFB126:
	.loc 1 457 0
	.cfi_startproc
	@ args = 0, pretend = 0, frame = 0
	@ frame_needed = 0, uses_anonymous_args = 0
	@ link register save eliminated.
	.loc 1 459 0
	ldr	r1, .L173
	ldrh	r3, [r1, #12]
	uxth	r3, r3
	orr	r3, r3, #8192
	orr	r3, r3, #4
	strh	r3, [r1, #12]	@ movhi
.L170:
	.loc 1 460 0 discriminator 1
	ldrh	r3, [r1]
	ldr	r2, .L173
	lsls	r3, r3, #26
	bpl	.L170
	.loc 1 462 0
	ldrh	r0, [r2, #4]
.LVL93:
	.loc 1 463 0
	ldrh	r3, [r2]
	bic	r3, r3, #32
	lsls	r3, r3, #16
	lsrs	r3, r3, #16
	strh	r3, [r2]	@ movhi
	.loc 1 464 0
	ldrh	r3, [r2, #12]
	bic	r3, r3, #4
	lsls	r3, r3, #16
	lsrs	r3, r3, #16
	.loc 1 466 0
	sxtb	r0, r0
	.loc 1 464 0
	strh	r3, [r2, #12]	@ movhi
	.loc 1 466 0
	bx	lr
.L174:
	.align	2
.L173:
	.word	1073760256
	.cfi_endproc
.LFE126:
	.size	getcharUSART3, .-getcharUSART3
	.align	2
	.global	chkUSART3flag
	.thumb
	.thumb_func
	.type	chkUSART3flag, %function
chkUSART3flag:
.LFB127:
	.loc 1 469 0
	.cfi_startproc
	@ args = 0, pretend = 0, frame = 0
	@ frame_needed = 0, uses_anonymous_args = 0
	@ link register save eliminated.
.LVL94:
	.loc 1 472 0
	ldr	r3, .L179
	ldrh	r1, [r3, #8]
	ldrh	r2, [r3, #6]
	uxth	r1, r1
	uxth	r2, r2
	cmp	r1, r2
	beq	.L177
.LVL95:
	.loc 1 475 0
	ldrh	r2, [r3, #8]
	adds	r2, r2, #1
	uxth	r2, r2
	strh	r2, [r3, #8]	@ movhi
	.loc 1 477 0
	ldrh	r2, [r3, #8]
	uxth	r2, r2
	cmp	r2, #512
	bcc	.L178
	.loc 1 479 0
	movs	r2, #0
	strh	r2, [r3, #8]	@ movhi
	movs	r0, #1
	bx	lr
.L178:
.LVL96:
	movs	r0, #1
	.loc 1 483 0
	bx	lr
.LVL97:
.L177:
	movs	r0, #0
	bx	lr
.L180:
	.align	2
.L179:
	.word	.LANCHOR0
	.cfi_endproc
.LFE127:
	.size	chkUSART3flag, .-chkUSART3flag
	.global	received
	.global	octave
	.comm	note,1,1
	.global	g_usart3_ridx
	.global	g_usart3_widx
	.comm	g_usart3_buffer,512,4
	.global	g_usart2_ridx
	.global	g_usart2_widx
	.comm	g_usart2_buffer,512,4
	.comm	dev_addr,1,1
	.data
	.set	.LANCHOR1,. + 0
	.type	octave, %object
	.size	octave, 1
octave:
	.byte	4
	.section	.rodata.str1.4,"aMS",%progbits,1
	.align	2
.LC0:
	.ascii	"C\000"
	.space	2
.LC1:
	.ascii	"Cis\000"
.LC2:
	.ascii	"D\000"
	.space	2
.LC3:
	.ascii	"Dis\000"
.LC4:
	.ascii	"E\000"
	.space	2
.LC5:
	.ascii	"F\000"
	.space	2
.LC6:
	.ascii	"Fis\000"
.LC7:
	.ascii	"G\000"
	.space	2
.LC8:
	.ascii	"Gis\000"
.LC9:
	.ascii	"A\000"
	.space	2
.LC10:
	.ascii	"Ais\000"
.LC11:
	.ascii	"H\000"
	.space	2
.LC12:
	.ascii	"C2\000"
	.space	1
.LC13:
	.ascii	"PAUSE\000"
	.space	2
.LC14:
	.ascii	"Octave Up\000"
	.space	2
.LC15:
	.ascii	"Octave Down\000"
	.bss
	.align	1
	.set	.LANCHOR0,. + 0
	.type	g_usart2_widx, %object
	.size	g_usart2_widx, 2
g_usart2_widx:
	.space	2
	.type	received, %object
	.size	received, 1
received:
	.space	1
	.space	1
	.type	g_usart2_ridx, %object
	.size	g_usart2_ridx, 2
g_usart2_ridx:
	.space	2
	.type	g_usart3_widx, %object
	.size	g_usart3_widx, 2
g_usart3_widx:
	.space	2
	.type	g_usart3_ridx, %object
	.size	g_usart3_ridx, 2
g_usart3_ridx:
	.space	2
	.text
.Letext0:
	.file 3 "../../../../STM32F407/Libraries/CMSIS/ST/STM32F4xx/Include/stm32f4xx.h"
	.file 4 "/home/ozman/msut/STM32F407/gcc-arm-none-eabi/arm-none-eabi/include/machine/_default_types.h"
	.file 5 "/home/ozman/msut/STM32F407/gcc-arm-none-eabi/arm-none-eabi/include/stdint.h"
	.file 6 "/home/ozman/msut/STM32F407/gcc-arm-none-eabi/lib/gcc/arm-none-eabi/4.9.3/include/stdarg.h"
	.file 7 "i2c.h"
	.file 8 "<built-in>"
	.file 9 "misc.h"